target datalayout = "e-m:e-p270:32:32-p271:32:32-p272:64:64-i64:64-i128:128-f80:128-n8:16:32:64-S128"
target triple = "x86_64-pc-linux-gnu"

%struct.block_q5_K = type { %union.anon.8, [12 x i8], [32 x i8], [128 x i8] }
%union.anon.8 = type { i32 }
%struct.anon.9 = type { i16, i16 }

@ggml_table_f32_f16 = external global [65536 x float], align 16

; Function Attrs: inlinehint nounwind uwtable
define internal void @get_scale_min_k4(i32 noundef %0, ptr noalias noundef %1, ptr noalias noundef %2, ptr noalias noundef %3) #3 {
  %5 = alloca i32, align 4
  %6 = alloca ptr, align 8
  %7 = alloca ptr, align 8
  %8 = alloca ptr, align 8
  store i32 %0, ptr %5, align 4, !tbaa !11
  store ptr %1, ptr %6, align 8, !tbaa !61
  store ptr %2, ptr %7, align 8, !tbaa !61
  store ptr %3, ptr %8, align 8, !tbaa !61
  %9 = load i32, ptr %5, align 4, !tbaa !11
  %10 = icmp slt i32 %9, 4
  br i1 %10, label %11, label %31

11:                                               ; preds = %4
  %12 = load ptr, ptr %6, align 8, !tbaa !61
  %13 = load i32, ptr %5, align 4, !tbaa !11
  %14 = sext i32 %13 to i64
  %15 = getelementptr inbounds i8, ptr %12, i64 %14
  %16 = load i8, ptr %15, align 1, !tbaa !20
  %17 = zext i8 %16 to i32
  %18 = and i32 %17, 63
  %19 = trunc i32 %18 to i8
  %20 = load ptr, ptr %7, align 8, !tbaa !61
  store i8 %19, ptr %20, align 1, !tbaa !20
  %21 = load ptr, ptr %6, align 8, !tbaa !61
  %22 = load i32, ptr %5, align 4, !tbaa !11
  %23 = add nsw i32 %22, 4
  %24 = sext i32 %23 to i64
  %25 = getelementptr inbounds i8, ptr %21, i64 %24
  %26 = load i8, ptr %25, align 1, !tbaa !20
  %27 = zext i8 %26 to i32
  %28 = and i32 %27, 63
  %29 = trunc i32 %28 to i8
  %30 = load ptr, ptr %8, align 8, !tbaa !61
  store i8 %29, ptr %30, align 1, !tbaa !20
  br label %72

31:                                               ; preds = %4
  %32 = load ptr, ptr %6, align 8, !tbaa !61
  %33 = load i32, ptr %5, align 4, !tbaa !11
  %34 = add nsw i32 %33, 4
  %35 = sext i32 %34 to i64
  %36 = getelementptr inbounds i8, ptr %32, i64 %35
  %37 = load i8, ptr %36, align 1, !tbaa !20
  %38 = zext i8 %37 to i32
  %39 = and i32 %38, 15
  %40 = load ptr, ptr %6, align 8, !tbaa !61
  %41 = load i32, ptr %5, align 4, !tbaa !11
  %42 = sub nsw i32 %41, 4
  %43 = sext i32 %42 to i64
  %44 = getelementptr inbounds i8, ptr %40, i64 %43
  %45 = load i8, ptr %44, align 1, !tbaa !20
  %46 = zext i8 %45 to i32
  %47 = ashr i32 %46, 6
  %48 = shl i32 %47, 4
  %49 = or i32 %39, %48
  %50 = trunc i32 %49 to i8
  %51 = load ptr, ptr %7, align 8, !tbaa !61
  store i8 %50, ptr %51, align 1, !tbaa !20
  %52 = load ptr, ptr %6, align 8, !tbaa !61
  %53 = load i32, ptr %5, align 4, !tbaa !11
  %54 = add nsw i32 %53, 4
  %55 = sext i32 %54 to i64
  %56 = getelementptr inbounds i8, ptr %52, i64 %55
  %57 = load i8, ptr %56, align 1, !tbaa !20
  %58 = zext i8 %57 to i32
  %59 = ashr i32 %58, 4
  %60 = load ptr, ptr %6, align 8, !tbaa !61
  %61 = load i32, ptr %5, align 4, !tbaa !11
  %62 = sub nsw i32 %61, 0
  %63 = sext i32 %62 to i64
  %64 = getelementptr inbounds i8, ptr %60, i64 %63
  %65 = load i8, ptr %64, align 1, !tbaa !20
  %66 = zext i8 %65 to i32
  %67 = ashr i32 %66, 6
  %68 = shl i32 %67, 4
  %69 = or i32 %59, %68
  %70 = trunc i32 %69 to i8
  %71 = load ptr, ptr %8, align 8, !tbaa !61
  store i8 %70, ptr %71, align 1, !tbaa !20
  br label %72

72:                                               ; preds = %31, %11
  ret void
}

; Function Attrs: inlinehint nounwind uwtable
define internal float @ggml_lookup_fp16_to_fp32(i16 noundef zeroext %0) #3 {
  %2 = alloca i16, align 2
  %3 = alloca i16, align 2
  store i16 %0, ptr %2, align 2, !tbaa !42
  call void @llvm.lifetime.start.p0(i64 2, ptr %3) #10
  call void @llvm.memcpy.p0.p0.i64(ptr align 2 %3, ptr align 2 %2, i64 2, i1 false)
  %4 = load i16, ptr %3, align 2, !tbaa !42
  %5 = zext i16 %4 to i64
  %6 = getelementptr inbounds nuw [65536 x float], ptr @ggml_table_f32_f16, i64 0, i64 %5
  %7 = load float, ptr %6, align 4, !tbaa !13
  call void @llvm.lifetime.end.p0(i64 2, ptr %3) #10
  ret float %7
}

; Function Attrs: nounwind uwtable
define void @dequantize_row_q5_K(ptr noalias noundef %0, ptr noalias noundef %1, i64 noundef %2) #0 {
  %4 = alloca ptr, align 8
  %5 = alloca ptr, align 8
  %6 = alloca i64, align 8
  %7 = alloca i64, align 8
  %8 = alloca i32, align 4
  %9 = alloca i32, align 4
  %10 = alloca ptr, align 8
  %11 = alloca ptr, align 8
  %12 = alloca float, align 4
  %13 = alloca float, align 4
  %14 = alloca i32, align 4
  %15 = alloca i8, align 1
  %16 = alloca i8, align 1
  %17 = alloca i8, align 1
  %18 = alloca i8, align 1
  %19 = alloca i32, align 4
  %20 = alloca float, align 4
  %21 = alloca float, align 4
  %22 = alloca float, align 4
  %23 = alloca float, align 4
  %24 = alloca i32, align 4
  %25 = alloca i32, align 4
  store ptr %0, ptr %4, align 8, !tbaa !8
  store ptr %1, ptr %5, align 8, !tbaa !3
  store i64 %2, ptr %6, align 8, !tbaa !9
  call void @llvm.lifetime.start.p0(i64 8, ptr %7) #10
  %26 = load i64, ptr %6, align 8, !tbaa !9
  %27 = sdiv i64 %26, 256
  store i64 %27, ptr %7, align 8, !tbaa !9
  call void @llvm.lifetime.start.p0(i64 4, ptr %8) #10
  store i32 0, ptr %8, align 4, !tbaa !11
  br label %28

28:                                               ; preds = %190, %3
  %29 = load i32, ptr %8, align 4, !tbaa !11
  %30 = sext i32 %29 to i64
  %31 = load i64, ptr %7, align 8, !tbaa !9
  %32 = icmp slt i64 %30, %31
  br i1 %32, label %34, label %33

33:                                               ; preds = %28
  store i32 2, ptr %9, align 4
  call void @llvm.lifetime.end.p0(i64 4, ptr %8) #10
  br label %193

34:                                               ; preds = %28
  call void @llvm.lifetime.start.p0(i64 8, ptr %10) #10
  %35 = load ptr, ptr %4, align 8, !tbaa !8
  %36 = load i32, ptr %8, align 4, !tbaa !11
  %37 = sext i32 %36 to i64
  %38 = getelementptr inbounds %struct.block_q5_K, ptr %35, i64 %37
  %39 = getelementptr inbounds nuw %struct.block_q5_K, ptr %38, i32 0, i32 3
  %40 = getelementptr inbounds [128 x i8], ptr %39, i64 0, i64 0
  store ptr %40, ptr %10, align 8, !tbaa !61
  call void @llvm.lifetime.start.p0(i64 8, ptr %11) #10
  %41 = load ptr, ptr %4, align 8, !tbaa !8
  %42 = load i32, ptr %8, align 4, !tbaa !11
  %43 = sext i32 %42 to i64
  %44 = getelementptr inbounds %struct.block_q5_K, ptr %41, i64 %43
  %45 = getelementptr inbounds nuw %struct.block_q5_K, ptr %44, i32 0, i32 2
  %46 = getelementptr inbounds [32 x i8], ptr %45, i64 0, i64 0
  store ptr %46, ptr %11, align 8, !tbaa !61
  call void @llvm.lifetime.start.p0(i64 4, ptr %12) #10
  %47 = load ptr, ptr %4, align 8, !tbaa !8
  %48 = load i32, ptr %8, align 4, !tbaa !11
  %49 = sext i32 %48 to i64
  %50 = getelementptr inbounds %struct.block_q5_K, ptr %47, i64 %49
  %51 = getelementptr inbounds nuw %struct.block_q5_K, ptr %50, i32 0, i32 0
  %52 = getelementptr inbounds nuw %struct.anon.9, ptr %51, i32 0, i32 0
  %53 = load i16, ptr %52, align 4, !tbaa !20
  %54 = call float @ggml_lookup_fp16_to_fp32(i16 noundef zeroext %53)
  store float %54, ptr %12, align 4, !tbaa !13
  call void @llvm.lifetime.start.p0(i64 4, ptr %13) #10
  %55 = load ptr, ptr %4, align 8, !tbaa !8
  %56 = load i32, ptr %8, align 4, !tbaa !11
  %57 = sext i32 %56 to i64
  %58 = getelementptr inbounds %struct.block_q5_K, ptr %55, i64 %57
  %59 = getelementptr inbounds nuw %struct.block_q5_K, ptr %58, i32 0, i32 0
  %60 = getelementptr inbounds nuw %struct.anon.9, ptr %59, i32 0, i32 1
  %61 = load i16, ptr %60, align 2, !tbaa !20
  %62 = call float @ggml_lookup_fp16_to_fp32(i16 noundef zeroext %61)
  store float %62, ptr %13, align 4, !tbaa !13
  call void @llvm.lifetime.start.p0(i64 4, ptr %14) #10
  store i32 0, ptr %14, align 4, !tbaa !11
  call void @llvm.lifetime.start.p0(i64 1, ptr %15) #10
  call void @llvm.lifetime.start.p0(i64 1, ptr %16) #10
  call void @llvm.lifetime.start.p0(i64 1, ptr %17) #10
  store i8 1, ptr %17, align 1, !tbaa !20
  call void @llvm.lifetime.start.p0(i64 1, ptr %18) #10
  store i8 2, ptr %18, align 1, !tbaa !20
  call void @llvm.lifetime.start.p0(i64 4, ptr %19) #10
  store i32 0, ptr %19, align 4, !tbaa !11
  br label %63

63:                                               ; preds = %186, %34
  %64 = load i32, ptr %19, align 4, !tbaa !11
  %65 = icmp slt i32 %64, 256
  br i1 %65, label %67, label %66

66:                                               ; preds = %63
  store i32 5, ptr %9, align 4
  call void @llvm.lifetime.end.p0(i64 4, ptr %19) #10
  br label %189

67:                                               ; preds = %63
  %68 = load i32, ptr %14, align 4, !tbaa !11
  %69 = add nsw i32 %68, 0
  %70 = load ptr, ptr %4, align 8, !tbaa !8
  %71 = load i32, ptr %8, align 4, !tbaa !11
  %72 = sext i32 %71 to i64
  %73 = getelementptr inbounds %struct.block_q5_K, ptr %70, i64 %72
  %74 = getelementptr inbounds nuw %struct.block_q5_K, ptr %73, i32 0, i32 1
  %75 = getelementptr inbounds [12 x i8], ptr %74, i64 0, i64 0
  call void @get_scale_min_k4(i32 noundef %69, ptr noundef %75, ptr noundef %15, ptr noundef %16)
  call void @llvm.lifetime.start.p0(i64 4, ptr %20) #10
  %76 = load float, ptr %12, align 4, !tbaa !13
  %77 = load i8, ptr %15, align 1, !tbaa !20
  %78 = zext i8 %77 to i32
  %79 = sitofp i32 %78 to float
  %80 = fmul float %76, %79
  store float %80, ptr %20, align 4, !tbaa !13
  call void @llvm.lifetime.start.p0(i64 4, ptr %21) #10
  %81 = load float, ptr %13, align 4, !tbaa !13
  %82 = load i8, ptr %16, align 1, !tbaa !20
  %83 = zext i8 %82 to i32
  %84 = sitofp i32 %83 to float
  %85 = fmul float %81, %84
  store float %85, ptr %21, align 4, !tbaa !13
  %86 = load i32, ptr %14, align 4, !tbaa !11
  %87 = add nsw i32 %86, 1
  %88 = load ptr, ptr %4, align 8, !tbaa !8
  %89 = load i32, ptr %8, align 4, !tbaa !11
  %90 = sext i32 %89 to i64
  %91 = getelementptr inbounds %struct.block_q5_K, ptr %88, i64 %90
  %92 = getelementptr inbounds nuw %struct.block_q5_K, ptr %91, i32 0, i32 1
  %93 = getelementptr inbounds [12 x i8], ptr %92, i64 0, i64 0
  call void @get_scale_min_k4(i32 noundef %87, ptr noundef %93, ptr noundef %15, ptr noundef %16)
  call void @llvm.lifetime.start.p0(i64 4, ptr %22) #10
  %94 = load float, ptr %12, align 4, !tbaa !13
  %95 = load i8, ptr %15, align 1, !tbaa !20
  %96 = zext i8 %95 to i32
  %97 = sitofp i32 %96 to float
  %98 = fmul float %94, %97
  store float %98, ptr %22, align 4, !tbaa !13
  call void @llvm.lifetime.start.p0(i64 4, ptr %23) #10
  %99 = load float, ptr %13, align 4, !tbaa !13
  %100 = load i8, ptr %16, align 1, !tbaa !20
  %101 = zext i8 %100 to i32
  %102 = sitofp i32 %101 to float
  %103 = fmul float %99, %102
  store float %103, ptr %23, align 4, !tbaa !13
  call void @llvm.lifetime.start.p0(i64 4, ptr %24) #10
  store i32 0, ptr %24, align 4, !tbaa !11
  br label %104

104:                                              ; preds = %135, %67
  %105 = load i32, ptr %24, align 4, !tbaa !11
  %106 = icmp slt i32 %105, 32
  br i1 %106, label %108, label %107

107:                                              ; preds = %104
  store i32 8, ptr %9, align 4
  call void @llvm.lifetime.end.p0(i64 4, ptr %24) #10
  br label %138

108:                                              ; preds = %104
  %109 = load float, ptr %20, align 4, !tbaa !13
  %110 = load ptr, ptr %10, align 8, !tbaa !61
  %111 = load i32, ptr %24, align 4, !tbaa !11
  %112 = sext i32 %111 to i64
  %113 = getelementptr inbounds i8, ptr %110, i64 %112
  %114 = load i8, ptr %113, align 1, !tbaa !20
  %115 = zext i8 %114 to i32
  %116 = and i32 %115, 15
  %117 = load ptr, ptr %11, align 8, !tbaa !61
  %118 = load i32, ptr %24, align 4, !tbaa !11
  %119 = sext i32 %118 to i64
  %120 = getelementptr inbounds i8, ptr %117, i64 %119
  %121 = load i8, ptr %120, align 1, !tbaa !20
  %122 = zext i8 %121 to i32
  %123 = load i8, ptr %17, align 1, !tbaa !20
  %124 = zext i8 %123 to i32
  %125 = and i32 %122, %124
  %126 = icmp ne i32 %125, 0
  %127 = select i1 %126, i32 16, i32 0
  %128 = add nsw i32 %116, %127
  %129 = sitofp i32 %128 to float
  %130 = load float, ptr %21, align 4, !tbaa !13
  %131 = fneg float %130
  %132 = call float @llvm.fmuladd.f32(float %109, float %129, float %131)
  %133 = load ptr, ptr %5, align 8, !tbaa !3
  %134 = getelementptr inbounds nuw float, ptr %133, i32 1
  store ptr %134, ptr %5, align 8, !tbaa !3
  store float %132, ptr %133, align 4, !tbaa !13
  br label %135

135:                                              ; preds = %108
  %136 = load i32, ptr %24, align 4, !tbaa !11
  %137 = add nsw i32 %136, 1
  store i32 %137, ptr %24, align 4, !tbaa !11
  br label %104, !llvm.loop !159

138:                                              ; preds = %107
  call void @llvm.lifetime.start.p0(i64 4, ptr %25) #10
  store i32 0, ptr %25, align 4, !tbaa !11
  br label %139

139:                                              ; preds = %170, %138
  %140 = load i32, ptr %25, align 4, !tbaa !11
  %141 = icmp slt i32 %140, 32
  br i1 %141, label %143, label %142

142:                                              ; preds = %139
  store i32 11, ptr %9, align 4
  call void @llvm.lifetime.end.p0(i64 4, ptr %25) #10
  br label %173

143:                                              ; preds = %139
  %144 = load float, ptr %22, align 4, !tbaa !13
  %145 = load ptr, ptr %10, align 8, !tbaa !61
  %146 = load i32, ptr %25, align 4, !tbaa !11
  %147 = sext i32 %146 to i64
  %148 = getelementptr inbounds i8, ptr %145, i64 %147
  %149 = load i8, ptr %148, align 1, !tbaa !20
  %150 = zext i8 %149 to i32
  %151 = ashr i32 %150, 4
  %152 = load ptr, ptr %11, align 8, !tbaa !61
  %153 = load i32, ptr %25, align 4, !tbaa !11
  %154 = sext i32 %153 to i64
  %155 = getelementptr inbounds i8, ptr %152, i64 %154
  %156 = load i8, ptr %155, align 1, !tbaa !20
  %157 = zext i8 %156 to i32
  %158 = load i8, ptr %18, align 1, !tbaa !20
  %159 = zext i8 %158 to i32
  %160 = and i32 %157, %159
  %161 = icmp ne i32 %160, 0
  %162 = select i1 %161, i32 16, i32 0
  %163 = add nsw i32 %151, %162
  %164 = sitofp i32 %163 to float
  %165 = load float, ptr %23, align 4, !tbaa !13
  %166 = fneg float %165
  %167 = call float @llvm.fmuladd.f32(float %144, float %164, float %166)
  %168 = load ptr, ptr %5, align 8, !tbaa !3
  %169 = getelementptr inbounds nuw float, ptr %168, i32 1
  store ptr %169, ptr %5, align 8, !tbaa !3
  store float %167, ptr %168, align 4, !tbaa !13
  br label %170

170:                                              ; preds = %143
  %171 = load i32, ptr %25, align 4, !tbaa !11
  %172 = add nsw i32 %171, 1
  store i32 %172, ptr %25, align 4, !tbaa !11
  br label %139, !llvm.loop !160

173:                                              ; preds = %142
  %174 = load ptr, ptr %10, align 8, !tbaa !61
  %175 = getelementptr inbounds i8, ptr %174, i64 32
  store ptr %175, ptr %10, align 8, !tbaa !61
  %176 = load i32, ptr %14, align 4, !tbaa !11
  %177 = add nsw i32 %176, 2
  store i32 %177, ptr %14, align 4, !tbaa !11
  %178 = load i8, ptr %17, align 1, !tbaa !20
  %179 = zext i8 %178 to i32
  %180 = shl i32 %179, 2
  %181 = trunc i32 %180 to i8
  store i8 %181, ptr %17, align 1, !tbaa !20
  %182 = load i8, ptr %18, align 1, !tbaa !20
  %183 = zext i8 %182 to i32
  %184 = shl i32 %183, 2
  %185 = trunc i32 %184 to i8
  store i8 %185, ptr %18, align 1, !tbaa !20
  call void @llvm.lifetime.end.p0(i64 4, ptr %23) #10
  call void @llvm.lifetime.end.p0(i64 4, ptr %22) #10
  call void @llvm.lifetime.end.p0(i64 4, ptr %21) #10
  call void @llvm.lifetime.end.p0(i64 4, ptr %20) #10
  br label %186

186:                                              ; preds = %173
  %187 = load i32, ptr %19, align 4, !tbaa !11
  %188 = add nsw i32 %187, 64
  store i32 %188, ptr %19, align 4, !tbaa !11
  br label %63, !llvm.loop !161

189:                                              ; preds = %66
  call void @llvm.lifetime.end.p0(i64 1, ptr %18) #10
  call void @llvm.lifetime.end.p0(i64 1, ptr %17) #10
  call void @llvm.lifetime.end.p0(i64 1, ptr %16) #10
  call void @llvm.lifetime.end.p0(i64 1, ptr %15) #10
  call void @llvm.lifetime.end.p0(i64 4, ptr %14) #10
  call void @llvm.lifetime.end.p0(i64 4, ptr %13) #10
  call void @llvm.lifetime.end.p0(i64 4, ptr %12) #10
  call void @llvm.lifetime.end.p0(i64 8, ptr %11) #10
  call void @llvm.lifetime.end.p0(i64 8, ptr %10) #10
  br label %190

190:                                              ; preds = %189
  %191 = load i32, ptr %8, align 4, !tbaa !11
  %192 = add nsw i32 %191, 1
  store i32 %192, ptr %8, align 4, !tbaa !11
  br label %28, !llvm.loop !162

193:                                              ; preds = %33
  call void @llvm.lifetime.end.p0(i64 8, ptr %7) #10
  ret void
}