; Function Attrs: nofree norecurse nosync nounwind memory(read, argmem: readwrite, inaccessiblemem: none) uwtable
define void @dequantize_row_q5_K(ptr noalias noundef readonly captures(none) %0, ptr noalias noundef writeonly captures(none) %1, i64 noundef %2) local_unnamed_addr #4 {
  %4 = sdiv i64 %2, 256
  %5 = icmp sgt i64 %2, 255
  br i1 %5, label %.lr.ph, label %._crit_edge

._crit_edge:                                      ; preds = %19, %3
  ret void

.lr.ph:                                           ; preds = %3, %19
  %indvars.iv83 = phi i64 [ %indvars.iv.next84, %19 ], [ 0, %3 ]
  %.04874 = phi ptr [ %105, %19 ], [ %1, %3 ]
  %6 = getelementptr inbounds nuw %struct.block_q5_K, ptr %0, i64 %indvars.iv83
  %7 = getelementptr inbounds nuw i8, ptr %6, i64 48
  %8 = getelementptr inbounds nuw i8, ptr %6, i64 16
  %9 = load i16, ptr %6, align 4, !tbaa !13
  %10 = zext i16 %9 to i64
  %11 = getelementptr inbounds nuw [65536 x float], ptr @ggml_table_f32_f16, i64 0, i64 %10
  %12 = load float, ptr %11, align 4, !tbaa !8
  %13 = getelementptr inbounds nuw i8, ptr %6, i64 2
  %14 = load i16, ptr %13, align 2, !tbaa !13
  %15 = zext i16 %14 to i64
  %16 = getelementptr inbounds nuw [65536 x float], ptr @ggml_table_f32_f16, i64 0, i64 %15
  %17 = load float, ptr %16, align 4, !tbaa !8
  %18 = getelementptr inbounds nuw i8, ptr %6, i64 4
  br label %20

19:                                               ; preds = %87
  %indvars.iv.next84 = add nuw nsw i64 %indvars.iv83, 1
  %exitcond86.not = icmp eq i64 %indvars.iv.next84, %4
  br i1 %exitcond86.not, label %._crit_edge, label %.lr.ph, !llvm.loop !366

20:                                               ; preds = %.lr.ph, %87
  %indvars.iv81 = phi i64 [ 0, %.lr.ph ], [ %indvars.iv.next82, %87 ]
  %.172 = phi ptr [ %.04874, %.lr.ph ], [ %105, %87 ]
  %.05071 = phi ptr [ %7, %.lr.ph ], [ %88, %87 ]
  %.05170 = phi i32 [ 0, %.lr.ph ], [ %91, %87 ]
  %.05269 = phi i8 [ 2, %.lr.ph ], [ %90, %87 ]
  %.05368 = phi i8 [ 1, %.lr.ph ], [ %89, %87 ]
  %21 = icmp samesign ult i64 %indvars.iv81, 4
  %22 = getelementptr inbounds nuw i8, ptr %18, i64 %indvars.iv81
  br i1 %21, label %23, label %36

23:                                               ; preds = %20
  %24 = load i8, ptr %22, align 1, !tbaa !13, !alias.scope !367, !noalias !370
  %25 = and i8 %24, 63
  %26 = getelementptr i8, ptr %22, i64 4
  %27 = load i8, ptr %26, align 1, !tbaa !13, !alias.scope !367, !noalias !370
  %28 = and i8 %27, 63
  %29 = or disjoint i64 %indvars.iv81, 1
  %30 = getelementptr inbounds nuw i8, ptr %18, i64 %29
  %31 = load i8, ptr %30, align 1, !tbaa !13, !alias.scope !373, !noalias !376
  %32 = and i8 %31, 63
  %33 = getelementptr i8, ptr %30, i64 4
  %34 = load i8, ptr %33, align 1, !tbaa !13, !alias.scope !373, !noalias !376
  %35 = and i8 %34, 63
  br label %get_scale_min_k4.exit59

36:                                               ; preds = %20
  %37 = getelementptr inbounds nuw i8, ptr %22, i64 4
  %38 = load i8, ptr %37, align 1, !tbaa !13, !alias.scope !367, !noalias !370
  %39 = and i8 %38, 15
  %40 = getelementptr i8, ptr %22, i64 -4
  %41 = load i8, ptr %40, align 1, !tbaa !13, !alias.scope !367, !noalias !370
  %42 = lshr i8 %41, 2
  %43 = and i8 %42, 48
  %44 = or disjoint i8 %43, %39
  %45 = lshr i8 %38, 4
  %46 = load i8, ptr %22, align 1, !tbaa !13, !alias.scope !367, !noalias !370
  %47 = lshr i8 %46, 2
  %48 = and i8 %47, 48
  %49 = or disjoint i8 %48, %45
  %50 = or disjoint i64 %indvars.iv81, 1
  %51 = getelementptr inbounds nuw i8, ptr %18, i64 %50
  %52 = getelementptr inbounds nuw i8, ptr %51, i64 4
  %53 = load i8, ptr %52, align 1, !tbaa !13, !alias.scope !373, !noalias !376
  %54 = and i8 %53, 15
  %55 = getelementptr i8, ptr %51, i64 -4
  %56 = load i8, ptr %55, align 1, !tbaa !13, !alias.scope !373, !noalias !376
  %57 = lshr i8 %56, 2
  %58 = and i8 %57, 48
  %59 = or disjoint i8 %58, %54
  %60 = lshr i8 %53, 4
  %61 = load i8, ptr %51, align 1, !tbaa !13, !alias.scope !373, !noalias !376
  %62 = lshr i8 %61, 2
  %63 = and i8 %62, 48
  %64 = or disjoint i8 %63, %60
  br label %get_scale_min_k4.exit59

get_scale_min_k4.exit59:                          ; preds = %23, %36
  %.in = phi i8 [ %28, %23 ], [ %49, %36 ]
  %.pn.in = phi i8 [ %25, %23 ], [ %44, %36 ]
  %.sink.i57 = phi i8 [ %32, %23 ], [ %59, %36 ]
  %storemerge.i58 = phi i8 [ %35, %23 ], [ %64, %36 ]
  %.pn = uitofp i8 %.pn.in to float
  %65 = fmul float %12, %.pn
  %66 = uitofp i8 %.in to float
  %67 = uitofp nneg i8 %.sink.i57 to float
  %68 = fmul float %12, %67
  %69 = fneg float %66
  %70 = fmul float %17, %69
  br label %74

.preheader:                                       ; preds = %74
  %71 = uitofp nneg i8 %storemerge.i58 to float
  %72 = fneg float %71
  %73 = fmul float %17, %72
  br label %93

74:                                               ; preds = %get_scale_min_k4.exit59, %74
  %indvars.iv = phi i64 [ 0, %get_scale_min_k4.exit59 ], [ %indvars.iv.next, %74 ]
  %.263 = phi ptr [ %.172, %get_scale_min_k4.exit59 ], [ %86, %74 ]
  %75 = getelementptr inbounds nuw i8, ptr %.05071, i64 %indvars.iv
  %76 = load i8, ptr %75, align 1, !tbaa !13
  %77 = and i8 %76, 15
  %78 = zext nneg i8 %77 to i32
  %79 = getelementptr inbounds nuw i8, ptr %8, i64 %indvars.iv
  %80 = load i8, ptr %79, align 1, !tbaa !13
  %81 = and i8 %80, %.05368
  %.not56 = icmp eq i8 %81, 0
  %82 = select i1 %.not56, i32 0, i32 16
  %83 = or disjoint i32 %82, %78
  %84 = uitofp nneg i32 %83 to float
  %85 = tail call float @llvm.fmuladd.f32(float %65, float %84, float %70)
  %86 = getelementptr inbounds nuw i8, ptr %.263, i64 4
  store float %85, ptr %.263, align 4, !tbaa !8
  %indvars.iv.next = add nuw nsw i64 %indvars.iv, 1
  %exitcond.not = icmp eq i64 %indvars.iv.next, 32
  br i1 %exitcond.not, label %.preheader, label %74, !llvm.loop !379

87:                                               ; preds = %93
  %88 = getelementptr inbounds nuw i8, ptr %.05071, i64 32
  %indvars.iv.next82 = add nuw nsw i64 %indvars.iv81, 2
  %89 = shl i8 %.05368, 2
  %90 = shl i8 %.05269, 2
  %91 = add nuw nsw i32 %.05170, 64
  %92 = icmp samesign ult i32 %.05170, 192
  br i1 %92, label %20, label %19, !llvm.loop !380

93:                                               ; preds = %.preheader, %93
  %indvars.iv77 = phi i64 [ 0, %.preheader ], [ %indvars.iv.next78, %93 ]
  %.365 = phi ptr [ %86, %.preheader ], [ %105, %93 ]
  %94 = getelementptr inbounds nuw i8, ptr %.05071, i64 %indvars.iv77
  %95 = load i8, ptr %94, align 1, !tbaa !13
  %96 = lshr i8 %95, 4
  %97 = zext nneg i8 %96 to i32
  %98 = getelementptr inbounds nuw i8, ptr %8, i64 %indvars.iv77
  %99 = load i8, ptr %98, align 1, !tbaa !13
  %100 = and i8 %99, %.05269
  %.not = icmp eq i8 %100, 0
  %101 = select i1 %.not, i32 0, i32 16
  %102 = or disjoint i32 %101, %97
  %103 = uitofp nneg i32 %102 to float
  %104 = tail call float @llvm.fmuladd.f32(float %68, float %103, float %73)
  %105 = getelementptr inbounds nuw i8, ptr %.365, i64 4
  store float %104, ptr %.365, align 4, !tbaa !8
  %indvars.iv.next78 = add nuw nsw i64 %indvars.iv77, 1
  %exitcond80.not = icmp eq i64 %indvars.iv.next78, 32
  br i1 %exitcond80.not, label %87, label %93, !llvm.loop !381
}